target datalayout = "e-m:e-p270:32:32-p271:32:32-p272:64:64-i64:64-i128:128-f80:128-n8:16:32:64-S128"
target triple = "x86_64-pc-linux-gnu"

%"class.sat::literal" = type { i32 }
%"class.smt::justification.base" = type <{ ptr, i8 }>
%class.ref_vector.48 = type { %class.ref_vector_core.49 }
%class.ref_vector_core.49 = type { %class.ref_manager_wrapper.50, %class.ptr_vector.51 }
%class.ref_manager_wrapper.50 = type { ptr }
%class.ptr_vector.51 = type { %class.vector.52 }
%class.vector.52 = type { ptr }
%class.ptr_vector.165 = type { %class.vector.166 }
%class.vector.166 = type { ptr }
%class.ptr_vector = type { %class.vector.3 }
%class.vector.3 = type { ptr }
%class.svector.4 = type { %class.vector.5 }
%class.vector.5 = type { ptr }
%class.obj_ref.80 = type { ptr, ptr }
%class.svector.194 = type { %class.vector.195 }
%class.vector.195 = type { ptr }
%class.ref_vector = type { %class.ref_vector_core }
%class.ref_vector_core = type { %class.ref_manager_wrapper, %class.ptr_vector }
%class.ref_manager_wrapper = type { ptr }
%class.ref_vector.151 = type { %class.ref_vector_core.152 }
%class.ref_vector_core.152 = type { %class.ref_manager_wrapper.153, %class.ptr_vector.154 }
%class.ref_manager_wrapper.153 = type { ptr }
%class.ptr_vector.154 = type { %class.vector.155 }
%class.vector.155 = type { ptr }
%"class.smt::conflict_resolution" = type <{ ptr, ptr, ptr, ptr, ptr, ptr, i32, [4 x i8], %class.svector.194, %class.ref_vector, i32, i32, %class.ptr_vector.165, i32, [4 x i8], %class.svector.286, %class.obj_pair_set, ptr, ptr, %class.svector.289, %class.obj_map.291, %class.obj_pair_map.296, %class.map.301, %class.ref_vector.48, %class.ref_vector.151, %class.obj_ref.80, %class.svector.194, %class.svector.194, %class.svector.4, %class.svector.4, %class.approx_set_tpl, [4 x i8] }>
%class.svector.286 = type { %class.vector.287 }
%class.vector.287 = type { ptr }
%class.obj_pair_set = type { %class.chashtable.288 }
%class.chashtable.288 = type { ptr, i32, i32, i32, i32, i32, i32, i32, ptr, ptr, ptr }
%class.svector.289 = type { %class.vector.290 }
%class.vector.290 = type { ptr }
%class.obj_map.291 = type { %class.core_hashtable.292 }
%class.core_hashtable.292 = type <{ ptr, i32, i32, i32, [4 x i8] }>
%class.obj_pair_map.296 = type { %class.core_hashtable.297 }
%class.core_hashtable.297 = type <{ ptr, i32, i32, i32, [4 x i8] }>
%class.map.301 = type { %class.table2map.302 }
%class.table2map.302 = type { %class.core_hashtable.303 }
%class.core_hashtable.303 = type <{ ptr, i32, i32, i32, [4 x i8] }>
%class.approx_set_tpl = type { i32 }
%"class.smt::simple_justification" = type { %"class.smt::justification.base", i32, ptr }

; Function Attrs: mustprogress uwtable
define linkonce_odr hidden noundef nonnull align 8 dereferenceable(8) ptr @_ZN6vectorIN3sat7literalELb0EjE9push_backERKS1_(ptr noundef nonnull align 8 dereferenceable(8) %0, ptr noundef nonnull align 4 dereferenceable(4) %1) #6 comdat align 2 {
  %3 = alloca ptr, align 8
  %4 = alloca ptr, align 8
  store ptr %0, ptr %3, align 8, !tbaa !793
  store ptr %1, ptr %4, align 8, !tbaa !3
  %5 = load ptr, ptr %3, align 8
  %6 = getelementptr inbounds nuw %class.vector.195, ptr %5, i32 0, i32 0
  %7 = load ptr, ptr %6, align 8, !tbaa !795
  %8 = icmp eq ptr %7, null
  br i1 %8, label %19, label %9

9:                                                ; preds = %2
  %10 = getelementptr inbounds nuw %class.vector.195, ptr %5, i32 0, i32 0
  %11 = load ptr, ptr %10, align 8, !tbaa !795
  %12 = getelementptr inbounds i32, ptr %11, i64 -1
  %13 = load i32, ptr %12, align 4, !tbaa !8
  %14 = getelementptr inbounds nuw %class.vector.195, ptr %5, i32 0, i32 0
  %15 = load ptr, ptr %14, align 8, !tbaa !795
  %16 = getelementptr inbounds i32, ptr %15, i64 -2
  %17 = load i32, ptr %16, align 4, !tbaa !8
  %18 = icmp eq i32 %13, %17
  br i1 %18, label %19, label %20

19:                                               ; preds = %9, %2
  call void @_ZN6vectorIN3sat7literalELb0EjE13expand_vectorEv(ptr noundef nonnull align 8 dereferenceable(8) %5)
  br label %20

20:                                               ; preds = %19, %9
  %21 = getelementptr inbounds nuw %class.vector.195, ptr %5, i32 0, i32 0
  %22 = load ptr, ptr %21, align 8, !tbaa !795
  %23 = getelementptr inbounds nuw %class.vector.195, ptr %5, i32 0, i32 0
  %24 = load ptr, ptr %23, align 8, !tbaa !795
  %25 = getelementptr inbounds i32, ptr %24, i64 -1
  %26 = load i32, ptr %25, align 4, !tbaa !8
  %27 = zext i32 %26 to i64
  %28 = getelementptr inbounds nuw %"class.sat::literal", ptr %22, i64 %27
  %29 = load ptr, ptr %4, align 8, !tbaa !3
  call void @llvm.memcpy.p0.p0.i64(ptr align 4 %28, ptr align 4 %29, i64 4, i1 false), !tbaa.struct !543
  %30 = getelementptr inbounds nuw %class.vector.195, ptr %5, i32 0, i32 0
  %31 = load ptr, ptr %30, align 8, !tbaa !795
  %32 = getelementptr inbounds i32, ptr %31, i64 -1
  %33 = load i32, ptr %32, align 4, !tbaa !8
  %34 = add i32 %33, 1
  store i32 %34, ptr %32, align 4, !tbaa !8
  ret ptr %5
}

; Function Attrs: mustprogress uwtable
define linkonce_odr hidden void @_ZN3smt19conflict_resolution12mark_literalEN3sat7literalE(ptr noundef nonnull align 8 dereferenceable(356) %0, i32 %1) #6 comdat align 2 {
  %3 = alloca %"class.sat::literal", align 4
  %4 = alloca ptr, align 8
  %5 = getelementptr inbounds nuw %"class.sat::literal", ptr %3, i32 0, i32 0
  store i32 %1, ptr %5, align 4
  store ptr %0, ptr %4, align 8, !tbaa !533
  %6 = load ptr, ptr %4, align 8
  %7 = getelementptr inbounds nuw %"class.smt::conflict_resolution", ptr %6, i32 0, i32 17
  %8 = load ptr, ptr %7, align 8, !tbaa !546
  %9 = call noundef nonnull align 8 dereferenceable(8) ptr @_ZN6vectorIN3sat7literalELb0EjE9push_backERKS1_(ptr noundef nonnull align 8 dereferenceable(8) %8, ptr noundef nonnull align 4 dereferenceable(4) %3)
  ret void
}

; Function Attrs: mustprogress uwtable
define hidden void @_ZN3smt20simple_justification15get_antecedentsERNS_19conflict_resolutionE(ptr noundef nonnull align 8 dereferenceable(24) %0, ptr noundef nonnull align 8 dereferenceable(356) %1) unnamed_addr #6 align 2 {
  %3 = alloca ptr, align 8
  %4 = alloca ptr, align 8
  %5 = alloca i32, align 4
  %6 = alloca %"class.sat::literal", align 4
  store ptr %0, ptr %3, align 8, !tbaa !661
  store ptr %1, ptr %4, align 8, !tbaa !533
  %7 = load ptr, ptr %3, align 8
  call void @llvm.lifetime.start.p0(i64 4, ptr %5) #3
  store i32 0, ptr %5, align 4, !tbaa !8
  br label %8

8:                                                ; preds = %23, %2
  %9 = load i32, ptr %5, align 4, !tbaa !8
  %10 = getelementptr inbounds nuw %"class.smt::simple_justification", ptr %7, i32 0, i32 1
  %11 = load i32, ptr %10, align 4, !tbaa !663
  %12 = icmp ult i32 %9, %11
  br i1 %12, label %14, label %13

13:                                               ; preds = %8
  call void @llvm.lifetime.end.p0(i64 4, ptr %5) #3
  br label %26

14:                                               ; preds = %8
  %15 = load ptr, ptr %4, align 8, !tbaa !533
  %16 = getelementptr inbounds nuw %"class.smt::simple_justification", ptr %7, i32 0, i32 2
  %17 = load ptr, ptr %16, align 8, !tbaa !665
  %18 = load i32, ptr %5, align 4, !tbaa !8
  %19 = zext i32 %18 to i64
  %20 = getelementptr inbounds nuw %"class.sat::literal", ptr %17, i64 %19
  call void @llvm.memcpy.p0.p0.i64(ptr align 4 %6, ptr align 4 %20, i64 4, i1 false), !tbaa.struct !543
  %21 = getelementptr inbounds nuw %"class.sat::literal", ptr %6, i32 0, i32 0
  %22 = load i32, ptr %21, align 4
  call void @_ZN3smt19conflict_resolution12mark_literalEN3sat7literalE(ptr noundef nonnull align 8 dereferenceable(356) %15, i32 %22)
  br label %23

23:                                               ; preds = %14
  %24 = load i32, ptr %5, align 4, !tbaa !8
  %25 = add i32 %24, 1
  store i32 %25, ptr %5, align 4, !tbaa !8
  br label %8, !llvm.loop !666

26:                                               ; preds = %13
  ret void
}