; Function Attrs: mustprogress uwtable
define hidden void @_ZN3smt20simple_justification15get_antecedentsERNS_19conflict_resolutionE(ptr noundef nonnull readonly align 8 captures(none) dereferenceable(24) %0, ptr noundef nonnull readonly align 8 captures(none) dereferenceable(356) %1) unnamed_addr #5 align 2 {
  %3 = getelementptr inbounds nuw i8, ptr %0, i64 12
  %4 = load i32, ptr %3, align 4, !tbaa !205
  %.not = icmp eq i32 %4, 0
  br i1 %.not, label %._crit_edge, label %.lr.ph

.lr.ph:                                           ; preds = %2
  %5 = getelementptr inbounds nuw i8, ptr %0, i64 16
  %6 = getelementptr inbounds nuw i8, ptr %1, i64 176
  br label %7

._crit_edge:                                      ; preds = %_ZN3smt19conflict_resolution12mark_literalEN3sat7literalE.exit, %2
  ret void

7:                                                ; preds = %.lr.ph, %_ZN3smt19conflict_resolution12mark_literalEN3sat7literalE.exit
  %indvars.iv = phi i64 [ 0, %.lr.ph ], [ %indvars.iv.next, %_ZN3smt19conflict_resolution12mark_literalEN3sat7literalE.exit ]
  %8 = load ptr, ptr %5, align 8, !tbaa !207
  %9 = getelementptr inbounds nuw %"class.sat::literal", ptr %8, i64 %indvars.iv
  %.sroa.0.0.copyload = load i32, ptr %9, align 4, !tbaa !29
  %10 = load ptr, ptr %6, align 8, !tbaa !31
  %11 = load ptr, ptr %10, align 8, !tbaa !84
  %12 = icmp eq ptr %11, null
  br i1 %12, label %19, label %13

13:                                               ; preds = %7
  %14 = getelementptr inbounds i8, ptr %11, i64 -4
  %15 = load i32, ptr %14, align 4, !tbaa !29
  %16 = getelementptr inbounds i8, ptr %11, i64 -8
  %17 = load i32, ptr %16, align 4, !tbaa !29
  %18 = icmp eq i32 %15, %17
  br i1 %18, label %19, label %_ZN3smt19conflict_resolution12mark_literalEN3sat7literalE.exit

19:                                               ; preds = %13, %7
  tail call void @_ZN6vectorIN3sat7literalELb0EjE13expand_vectorEv(ptr noundef nonnull align 8 dereferenceable(8) %10)
  %.pre.i.i = load ptr, ptr %10, align 8, !tbaa !84
  %.phi.trans.insert.i.i = getelementptr inbounds i8, ptr %.pre.i.i, i64 -4
  %.pre2.i.i = load i32, ptr %.phi.trans.insert.i.i, align 4, !tbaa !29
  br label %_ZN3smt19conflict_resolution12mark_literalEN3sat7literalE.exit

_ZN3smt19conflict_resolution12mark_literalEN3sat7literalE.exit: ; preds = %13, %19
  %20 = phi i32 [ %.pre2.i.i, %19 ], [ %15, %13 ]
  %21 = phi ptr [ %.pre.i.i, %19 ], [ %11, %13 ]
  %22 = getelementptr inbounds i8, ptr %21, i64 -4
  %23 = zext i32 %20 to i64
  %24 = getelementptr inbounds nuw %"class.sat::literal", ptr %21, i64 %23
  store i32 %.sroa.0.0.copyload, ptr %24, align 4, !tbaa !29
  %25 = add i32 %20, 1
  store i32 %25, ptr %22, align 4, !tbaa !29
  %indvars.iv.next = add nuw nsw i64 %indvars.iv, 1
  %26 = load i32, ptr %3, align 4, !tbaa !205
  %27 = zext i32 %26 to i64
  %28 = icmp samesign ult i64 %indvars.iv.next, %27
  br i1 %28, label %7, label %._crit_edge, !llvm.loop !208
}